target datalayout = "e-m:e-p270:32:32-p271:32:32-p272:64:64-i64:64-i128:128-f80:128-n8:16:32:64-S128"
target triple = "x86_64-pc-linux-gnu"

%struct.func_args = type { i32, ptr, i32 }

@stdout = external global ptr, align 8
@.str.91 = private unnamed_addr constant [26 x i8] c"wolfCrypt_Init failed %d\0A\00", align 1
@.str.92 = private unnamed_addr constant [28 x i8] c"Error with wolfCrypt_Init!\0A\00", align 1
@.str.93 = private unnamed_addr constant [29 x i8] c"wolfCrypt_Cleanup failed %d\0A\00", align 1
@.str.94 = private unnamed_addr constant [31 x i8] c"Error with wolfCrypt_Cleanup!\0A\00", align 1
@.str.95 = private unnamed_addr constant [36 x i8] c"Exiting main with return code: %ld\0A\00", align 1

; Function Attrs: nounwind uwtable
define dso_local i32 @wolfcrypt_test_main(i32 noundef %0, ptr noundef %1) #0 {
  %3 = alloca i32, align 4
  %4 = alloca ptr, align 8
  %5 = alloca i32, align 4
  %6 = alloca %struct.func_args, align 8
  store i32 %0, ptr %3, align 4, !tbaa !14
  store ptr %1, ptr %4, align 8, !tbaa !105
  call void @llvm.lifetime.start.p0(i64 4, ptr %5) #10
  call void @llvm.lifetime.start.p0(i64 24, ptr %6) #10
  call void @llvm.memset.p0.i64(ptr align 8 %6, i8 0, i64 24, i1 false)
  %7 = load i32, ptr %3, align 4, !tbaa !14
  %8 = getelementptr inbounds nuw %struct.func_args, ptr %6, i32 0, i32 0
  store i32 %7, ptr %8, align 8, !tbaa !106
  %9 = load ptr, ptr %4, align 8, !tbaa !105
  %10 = getelementptr inbounds nuw %struct.func_args, ptr %6, i32 0, i32 1
  store ptr %9, ptr %10, align 8, !tbaa !107
  %11 = call i32 @wolfCrypt_Init()
  store i32 %11, ptr %5, align 4, !tbaa !14
  %12 = icmp ne i32 %11, 0
  br i1 %12, label %13, label %30

13:                                               ; preds = %2
  %14 = load i32, ptr %5, align 4, !tbaa !14
  %15 = call i32 (ptr, ...) @printf(ptr noundef @.str.91, i32 noundef %14)
  %16 = load ptr, ptr @stdout, align 8, !tbaa !8
  %17 = call i32 @fflush(ptr noundef %16)
  %18 = load i32, ptr %5, align 4, !tbaa !14
  %19 = sub nsw i32 0, %18
  %20 = zext i32 %19 to i64
  %21 = and i64 %20, 2047
  %22 = trunc i64 %21 to i32
  %23 = sext i32 %22 to i64
  %24 = mul nsw i64 %23, 100000
  %25 = add nsw i64 2623, %24
  %26 = add nsw i64 %25, 536870912
  %27 = sub nsw i64 0, %26
  %28 = trunc i64 %27 to i32
  %29 = call i32 @err_sys(ptr noundef @.str.92, i32 noundef %28)
  br label %30

30:                                               ; preds = %13, %2
  %31 = call i32 @wolfcrypt_test(ptr noundef %6)
  %32 = call i32 @wolfCrypt_Cleanup()
  store i32 %32, ptr %5, align 4, !tbaa !14
  %33 = icmp ne i32 %32, 0
  br i1 %33, label %34, label %51

34:                                               ; preds = %30
  %35 = load i32, ptr %5, align 4, !tbaa !14
  %36 = call i32 (ptr, ...) @printf(ptr noundef @.str.93, i32 noundef %35)
  %37 = load ptr, ptr @stdout, align 8, !tbaa !8
  %38 = call i32 @fflush(ptr noundef %37)
  %39 = load i32, ptr %5, align 4, !tbaa !14
  %40 = sub nsw i32 0, %39
  %41 = zext i32 %40 to i64
  %42 = and i64 %41, 2047
  %43 = trunc i64 %42 to i32
  %44 = sext i32 %43 to i64
  %45 = mul nsw i64 %44, 100000
  %46 = add nsw i64 2638, %45
  %47 = add nsw i64 %46, 536870912
  %48 = sub nsw i64 0, %47
  %49 = trunc i64 %48 to i32
  %50 = call i32 @err_sys(ptr noundef @.str.94, i32 noundef %49)
  br label %51

51:                                               ; preds = %34, %30
  %52 = getelementptr inbounds nuw %struct.func_args, ptr %6, i32 0, i32 2
  %53 = load i32, ptr %52, align 8, !tbaa !10
  %54 = sext i32 %53 to i64
  %55 = call i32 (ptr, ...) @printf(ptr noundef @.str.95, i64 noundef %54)
  %56 = load ptr, ptr @stdout, align 8, !tbaa !8
  %57 = call i32 @fflush(ptr noundef %56)
  %58 = getelementptr inbounds nuw %struct.func_args, ptr %6, i32 0, i32 2
  %59 = load i32, ptr %58, align 8, !tbaa !10
  call void @llvm.lifetime.end.p0(i64 24, ptr %6) #10
  call void @llvm.lifetime.end.p0(i64 4, ptr %5) #10
  ret i32 %59
}