; Function Attrs: nounwind uwtable
define dso_local i32 @wolfcrypt_test_main(i32 noundef %0, ptr noundef %1) local_unnamed_addr #0 {
  %3 = alloca %struct.func_args, align 8
  call void @llvm.lifetime.start.p0(i64 24, ptr nonnull %3) #19
  call void @llvm.memset.p0.i64(ptr noundef nonnull align 8 dereferenceable(24) %3, i8 0, i64 24, i1 false)
  store i32 %0, ptr %3, align 8, !tbaa !120
  %4 = getelementptr inbounds nuw i8, ptr %3, i64 8
  store ptr %1, ptr %4, align 8, !tbaa !121
  %5 = tail call i32 @wolfCrypt_Init() #19
  %.not = icmp eq i32 %5, 0
  br i1 %.not, label %13, label %6

6:                                                ; preds = %2
  %7 = tail call i32 (ptr, ...) @printf(ptr noundef nonnull dereferenceable(1) @.str.91, i32 noundef %5)
  %8 = load ptr, ptr @stdout, align 8, !tbaa !4
  %9 = tail call i32 @fflush(ptr noundef %8)
  %10 = sub nsw i32 0, %5
  %11 = and i32 %10, 2047
  %narrow.neg = mul nsw i32 %11, -100000
  %12 = add nsw i32 %narrow.neg, -536873535
  tail call fastcc void @err_sys(ptr noundef nonnull @.str.92, i32 noundef %12)
  br label %13

13:                                               ; preds = %6, %2
  %14 = call i32 @wolfcrypt_test(ptr noundef nonnull %3)
  %15 = call i32 @wolfCrypt_Cleanup() #19
  %.not8 = icmp eq i32 %15, 0
  br i1 %.not8, label %23, label %16

16:                                               ; preds = %13
  %17 = call i32 (ptr, ...) @printf(ptr noundef nonnull dereferenceable(1) @.str.93, i32 noundef %15)
  %18 = load ptr, ptr @stdout, align 8, !tbaa !4
  %19 = call i32 @fflush(ptr noundef %18)
  %20 = sub nsw i32 0, %15
  %21 = and i32 %20, 2047
  %narrow.neg11 = mul nsw i32 %21, -100000
  %22 = add nsw i32 %narrow.neg11, -536873550
  call fastcc void @err_sys(ptr noundef nonnull @.str.94, i32 noundef %22)
  br label %23

23:                                               ; preds = %16, %13
  %24 = getelementptr inbounds nuw i8, ptr %3, i64 16
  %25 = load i32, ptr %24, align 8, !tbaa !9
  %26 = sext i32 %25 to i64
  %27 = call i32 (ptr, ...) @printf(ptr noundef nonnull dereferenceable(1) @.str.95, i64 noundef %26)
  %28 = load ptr, ptr @stdout, align 8, !tbaa !4
  %29 = call i32 @fflush(ptr noundef %28)
  %30 = load i32, ptr %24, align 8, !tbaa !9
  call void @llvm.lifetime.end.p0(i64 24, ptr nonnull %3) #19
  ret i32 %30
}